target datalayout = "e-m:e-p270:32:32-p271:32:32-p272:64:64-i64:64-i128:128-f80:128-n8:16:32:64-S128"
target triple = "x86_64-pc-linux-gnu"

%struct.Vec_Int_t_ = type { i32, i32, ptr }
%struct.Vec_Ptr_t_ = type { i32, i32, ptr }
%struct.Prs_Ntk_t_ = type { i32, i8, ptr, ptr, ptr, %struct.Vec_Int_t_, %struct.Vec_Int_t_, %struct.Vec_Int_t_, %struct.Vec_Int_t_, %struct.Vec_Int_t_, %struct.Vec_Int_t_, %struct.Vec_Int_t_, %struct.Vec_Int_t_, %struct.Vec_Int_t_, %struct.Vec_Int_t_, %struct.Vec_Int_t_, %struct.Vec_Int_t_, %struct.Vec_Int_t_ }
%struct.timespec = type { i64, i64 }

@.str.11 = private unnamed_addr constant [31 x i8] c"Finished reading %d networks. \00", align 1
@.str.12 = private unnamed_addr constant [15 x i8] c"NameIDs = %d. \00", align 1
@.str.13 = private unnamed_addr constant [19 x i8] c"Memory = %.2f MB. \00", align 1
@.str.14 = private unnamed_addr constant [5 x i8] c"Time\00", align 1
@.str.15 = private unnamed_addr constant [7 x i8] c"_out.v\00", align 1
@.str.195 = private unnamed_addr constant [5 x i8] c"%s =\00", align 1
@.str.196 = private unnamed_addr constant [11 x i8] c"%9.2f sec\0A\00", align 1

; Function Attrs: nounwind uwtable
define internal double @Vec_IntMemory(ptr noundef %0) #0 {
  %2 = alloca ptr, align 8
  store ptr %0, ptr %2, align 8
  %3 = load ptr, ptr %2, align 8
  %4 = icmp ne ptr %3, null
  br i1 %4, label %6, label %5

5:                                                ; preds = %1
  br label %13

6:                                                ; preds = %1
  %7 = load ptr, ptr %2, align 8
  %8 = getelementptr inbounds %struct.Vec_Int_t_, ptr %7, i32 0, i32 0
  %9 = load i32, ptr %8, align 8
  %10 = sext i32 %9 to i64
  %11 = uitofp i64 %10 to double
  %12 = call double @llvm.fmuladd.f64(double 4.000000e+00, double %11, double 1.600000e+01)
  br label %13

13:                                               ; preds = %6, %5
  %14 = phi double [ 0.000000e+00, %5 ], [ %12, %6 ]
  ret double %14
}

; Function Attrs: nounwind uwtable
define internal ptr @Prs_ManNtk(ptr noundef %0, i32 noundef %1) #0 {
  %3 = alloca ptr, align 8
  %4 = alloca i32, align 4
  store ptr %0, ptr %3, align 8
  store i32 %1, ptr %4, align 4
  %5 = load i32, ptr %4, align 4
  %6 = icmp sge i32 %5, 0
  br i1 %6, label %7, label %16

7:                                                ; preds = %2
  %8 = load i32, ptr %4, align 4
  %9 = load ptr, ptr %3, align 8
  %10 = call i32 @Vec_PtrSize(ptr noundef %9)
  %11 = icmp slt i32 %8, %10
  br i1 %11, label %12, label %16

12:                                               ; preds = %7
  %13 = load ptr, ptr %3, align 8
  %14 = load i32, ptr %4, align 4
  %15 = call ptr @Vec_PtrEntry(ptr noundef %13, i32 noundef %14)
  br label %17

16:                                               ; preds = %7, %2
  br label %17

17:                                               ; preds = %16, %12
  %18 = phi ptr [ %15, %12 ], [ null, %16 ]
  ret ptr %18
}

; Function Attrs: nounwind uwtable
define internal i32 @Prs_NtkMemory(ptr noundef %0) #0 {
  %2 = alloca ptr, align 8
  %3 = alloca i32, align 4
  store ptr %0, ptr %2, align 8
  store i32 240, ptr %3, align 4
  %4 = load ptr, ptr %2, align 8
  %5 = getelementptr inbounds %struct.Prs_Ntk_t_, ptr %4, i32 0, i32 5
  %6 = call double @Vec_IntMemory(ptr noundef %5)
  %7 = load i32, ptr %3, align 4
  %8 = sitofp i32 %7 to double
  %9 = fadd double %8, %6
  %10 = fptosi double %9 to i32
  store i32 %10, ptr %3, align 4
  %11 = load ptr, ptr %2, align 8
  %12 = getelementptr inbounds %struct.Prs_Ntk_t_, ptr %11, i32 0, i32 6
  %13 = call double @Vec_IntMemory(ptr noundef %12)
  %14 = load i32, ptr %3, align 4
  %15 = sitofp i32 %14 to double
  %16 = fadd double %15, %13
  %17 = fptosi double %16 to i32
  store i32 %17, ptr %3, align 4
  %18 = load ptr, ptr %2, align 8
  %19 = getelementptr inbounds %struct.Prs_Ntk_t_, ptr %18, i32 0, i32 7
  %20 = call double @Vec_IntMemory(ptr noundef %19)
  %21 = load i32, ptr %3, align 4
  %22 = sitofp i32 %21 to double
  %23 = fadd double %22, %20
  %24 = fptosi double %23 to i32
  store i32 %24, ptr %3, align 4
  %25 = load ptr, ptr %2, align 8
  %26 = getelementptr inbounds %struct.Prs_Ntk_t_, ptr %25, i32 0, i32 8
  %27 = call double @Vec_IntMemory(ptr noundef %26)
  %28 = load i32, ptr %3, align 4
  %29 = sitofp i32 %28 to double
  %30 = fadd double %29, %27
  %31 = fptosi double %30 to i32
  store i32 %31, ptr %3, align 4
  %32 = load ptr, ptr %2, align 8
  %33 = getelementptr inbounds %struct.Prs_Ntk_t_, ptr %32, i32 0, i32 9
  %34 = call double @Vec_IntMemory(ptr noundef %33)
  %35 = load i32, ptr %3, align 4
  %36 = sitofp i32 %35 to double
  %37 = fadd double %36, %34
  %38 = fptosi double %37 to i32
  store i32 %38, ptr %3, align 4
  %39 = load ptr, ptr %2, align 8
  %40 = getelementptr inbounds %struct.Prs_Ntk_t_, ptr %39, i32 0, i32 10
  %41 = call double @Vec_IntMemory(ptr noundef %40)
  %42 = load i32, ptr %3, align 4
  %43 = sitofp i32 %42 to double
  %44 = fadd double %43, %41
  %45 = fptosi double %44 to i32
  store i32 %45, ptr %3, align 4
  %46 = load ptr, ptr %2, align 8
  %47 = getelementptr inbounds %struct.Prs_Ntk_t_, ptr %46, i32 0, i32 11
  %48 = call double @Vec_IntMemory(ptr noundef %47)
  %49 = load i32, ptr %3, align 4
  %50 = sitofp i32 %49 to double
  %51 = fadd double %50, %48
  %52 = fptosi double %51 to i32
  store i32 %52, ptr %3, align 4
  %53 = load ptr, ptr %2, align 8
  %54 = getelementptr inbounds %struct.Prs_Ntk_t_, ptr %53, i32 0, i32 12
  %55 = call double @Vec_IntMemory(ptr noundef %54)
  %56 = load i32, ptr %3, align 4
  %57 = sitofp i32 %56 to double
  %58 = fadd double %57, %55
  %59 = fptosi double %58 to i32
  store i32 %59, ptr %3, align 4
  %60 = load ptr, ptr %2, align 8
  %61 = getelementptr inbounds %struct.Prs_Ntk_t_, ptr %60, i32 0, i32 13
  %62 = call double @Vec_IntMemory(ptr noundef %61)
  %63 = load i32, ptr %3, align 4
  %64 = sitofp i32 %63 to double
  %65 = fadd double %64, %62
  %66 = fptosi double %65 to i32
  store i32 %66, ptr %3, align 4
  %67 = load ptr, ptr %2, align 8
  %68 = getelementptr inbounds %struct.Prs_Ntk_t_, ptr %67, i32 0, i32 14
  %69 = call double @Vec_IntMemory(ptr noundef %68)
  %70 = load i32, ptr %3, align 4
  %71 = sitofp i32 %70 to double
  %72 = fadd double %71, %69
  %73 = fptosi double %72 to i32
  store i32 %73, ptr %3, align 4
  %74 = load ptr, ptr %2, align 8
  %75 = getelementptr inbounds %struct.Prs_Ntk_t_, ptr %74, i32 0, i32 16
  %76 = call double @Vec_IntMemory(ptr noundef %75)
  %77 = load i32, ptr %3, align 4
  %78 = sitofp i32 %77 to double
  %79 = fadd double %78, %76
  %80 = fptosi double %79 to i32
  store i32 %80, ptr %3, align 4
  %81 = load ptr, ptr %2, align 8
  %82 = getelementptr inbounds %struct.Prs_Ntk_t_, ptr %81, i32 0, i32 15
  %83 = call double @Vec_IntMemory(ptr noundef %82)
  %84 = load i32, ptr %3, align 4
  %85 = sitofp i32 %84 to double
  %86 = fadd double %85, %83
  %87 = fptosi double %86 to i32
  store i32 %87, ptr %3, align 4
  %88 = load i32, ptr %3, align 4
  ret i32 %88
}

; Function Attrs: nounwind uwtable
define internal ptr @Vec_PtrEntry(ptr noundef %0, i32 noundef %1) #0 {
  %3 = alloca ptr, align 8
  %4 = alloca i32, align 4
  store ptr %0, ptr %3, align 8
  store i32 %1, ptr %4, align 4
  %5 = load ptr, ptr %3, align 8
  %6 = getelementptr inbounds %struct.Vec_Ptr_t_, ptr %5, i32 0, i32 2
  %7 = load ptr, ptr %6, align 8
  %8 = load i32, ptr %4, align 4
  %9 = sext i32 %8 to i64
  %10 = getelementptr inbounds ptr, ptr %7, i64 %9
  %11 = load ptr, ptr %10, align 8
  ret ptr %11
}

; Function Attrs: nounwind uwtable
define internal double @Vec_PtrMemory(ptr noundef %0) #0 {
  %2 = alloca ptr, align 8
  store ptr %0, ptr %2, align 8
  %3 = load ptr, ptr %2, align 8
  %4 = icmp ne ptr %3, null
  br i1 %4, label %6, label %5

5:                                                ; preds = %1
  br label %13

6:                                                ; preds = %1
  %7 = load ptr, ptr %2, align 8
  %8 = getelementptr inbounds %struct.Vec_Ptr_t_, ptr %7, i32 0, i32 0
  %9 = load i32, ptr %8, align 8
  %10 = sext i32 %9 to i64
  %11 = uitofp i64 %10 to double
  %12 = call double @llvm.fmuladd.f64(double 8.000000e+00, double %11, double 1.600000e+01)
  br label %13

13:                                               ; preds = %6, %5
  %14 = phi double [ 0.000000e+00, %5 ], [ %12, %6 ]
  ret double %14
}

; Function Attrs: nounwind uwtable
define internal ptr @Prs_ManRoot(ptr noundef %0) #0 {
  %2 = alloca ptr, align 8
  store ptr %0, ptr %2, align 8
  %3 = load ptr, ptr %2, align 8
  %4 = call ptr @Prs_ManNtk(ptr noundef %3, i32 noundef 0)
  ret ptr %4
}

; Function Attrs: nounwind uwtable
define internal void @Abc_PrintTime(i32 noundef %0, ptr noundef %1, i64 noundef %2) #0 {
  %4 = alloca i32, align 4
  %5 = alloca ptr, align 8
  %6 = alloca i64, align 8
  store i32 %0, ptr %4, align 4
  store ptr %1, ptr %5, align 8
  store i64 %2, ptr %6, align 8
  %7 = load ptr, ptr %5, align 8
  call void (i32, ptr, ...) @Abc_Print(i32 noundef 1, ptr noundef @.str.195, ptr noundef %7)
  %8 = load i64, ptr %6, align 8
  %9 = sitofp i64 %8 to double
  %10 = fmul double 1.000000e+00, %9
  %11 = fdiv double %10, 1.000000e+06
  call void (i32, ptr, ...) @Abc_Print(i32 noundef 1, ptr noundef @.str.196, double noundef %11)
  ret void
}

; Function Attrs: nounwind uwtable
define internal i32 @Prs_ManMemory(ptr noundef %0) #0 {
  %2 = alloca ptr, align 8
  %3 = alloca ptr, align 8
  %4 = alloca i32, align 4
  %5 = alloca i32, align 4
  store ptr %0, ptr %2, align 8
  %6 = load ptr, ptr %2, align 8
  %7 = call double @Vec_PtrMemory(ptr noundef %6)
  %8 = fptosi double %7 to i32
  store i32 %8, ptr %5, align 4
  store i32 0, ptr %4, align 4
  br label %9

9:                                                ; preds = %25, %1
  %10 = load i32, ptr %4, align 4
  %11 = load ptr, ptr %2, align 8
  %12 = call i32 @Vec_PtrSize(ptr noundef %11)
  %13 = icmp slt i32 %10, %12
  br i1 %13, label %14, label %18

14:                                               ; preds = %9
  %15 = load ptr, ptr %2, align 8
  %16 = load i32, ptr %4, align 4
  %17 = call ptr @Vec_PtrEntry(ptr noundef %15, i32 noundef %16)
  store ptr %17, ptr %3, align 8
  br label %18

18:                                               ; preds = %14, %9
  %19 = phi i1 [ false, %9 ], [ true, %14 ]
  br i1 %19, label %20, label %28

20:                                               ; preds = %18
  %21 = load ptr, ptr %3, align 8
  %22 = call i32 @Prs_NtkMemory(ptr noundef %21)
  %23 = load i32, ptr %5, align 4
  %24 = add nsw i32 %23, %22
  store i32 %24, ptr %5, align 4
  br label %25

25:                                               ; preds = %20
  %26 = load i32, ptr %4, align 4
  %27 = add nsw i32 %26, 1
  store i32 %27, ptr %4, align 4
  br label %9, !llvm.loop !12

28:                                               ; preds = %18
  %29 = load ptr, ptr %2, align 8
  %30 = call ptr @Prs_ManNameMan(ptr noundef %29)
  %31 = call i32 @Abc_NamMemUsed(ptr noundef %30)
  %32 = load i32, ptr %5, align 4
  %33 = add nsw i32 %32, %31
  store i32 %33, ptr %5, align 4
  %34 = load i32, ptr %5, align 4
  ret i32 %34
}

; Function Attrs: nounwind uwtable
define internal ptr @Prs_ManNameMan(ptr noundef %0) #0 {
  %2 = alloca ptr, align 8
  store ptr %0, ptr %2, align 8
  %3 = load ptr, ptr %2, align 8
  %4 = call ptr @Prs_ManRoot(ptr noundef %3)
  %5 = getelementptr inbounds %struct.Prs_Ntk_t_, ptr %4, i32 0, i32 2
  %6 = load ptr, ptr %5, align 8
  ret ptr %6
}

; Function Attrs: nounwind uwtable
define internal i32 @Vec_PtrSize(ptr noundef %0) #0 {
  %2 = alloca ptr, align 8
  store ptr %0, ptr %2, align 8
  %3 = load ptr, ptr %2, align 8
  %4 = getelementptr inbounds %struct.Vec_Ptr_t_, ptr %3, i32 0, i32 1
  %5 = load i32, ptr %4, align 4
  ret i32 %5
}

; Function Attrs: nounwind uwtable
define internal i64 @Abc_Clock() #0 {
  %1 = alloca i64, align 8
  %2 = alloca %struct.timespec, align 8
  %3 = alloca i64, align 8
  %4 = call i32 @clock_gettime(i32 noundef 1, ptr noundef %2) #12
  %5 = icmp slt i32 %4, 0
  br i1 %5, label %6, label %7

6:                                                ; preds = %0
  store i64 -1, ptr %1, align 8
  br label %18

7:                                                ; preds = %0
  %8 = getelementptr inbounds %struct.timespec, ptr %2, i32 0, i32 0
  %9 = load i64, ptr %8, align 8
  %10 = mul nsw i64 %9, 1000000
  store i64 %10, ptr %3, align 8
  %11 = getelementptr inbounds %struct.timespec, ptr %2, i32 0, i32 1
  %12 = load i64, ptr %11, align 8
  %13 = mul nsw i64 %12, 1000000
  %14 = sdiv i64 %13, 1000000000
  %15 = load i64, ptr %3, align 8
  %16 = add nsw i64 %15, %14
  store i64 %16, ptr %3, align 8
  %17 = load i64, ptr %3, align 8
  store i64 %17, ptr %1, align 8
  br label %18

18:                                               ; preds = %7, %6
  %19 = load i64, ptr %1, align 8
  ret i64 %19
}

; Function Attrs: nounwind uwtable
define void @Prs_ManReadVerilogTest(ptr noundef %0) #0 {
  %2 = alloca ptr, align 8
  %3 = alloca i64, align 8
  %4 = alloca ptr, align 8
  store ptr %0, ptr %2, align 8
  %5 = call i64 @Abc_Clock()
  store i64 %5, ptr %3, align 8
  %6 = load ptr, ptr %2, align 8
  %7 = call ptr @Prs_ManReadVerilog(ptr noundef %6)
  store ptr %7, ptr %4, align 8
  %8 = load ptr, ptr %4, align 8
  %9 = icmp ne ptr %8, null
  br i1 %9, label %11, label %10

10:                                               ; preds = %1
  br label %32

11:                                               ; preds = %1
  %12 = load ptr, ptr %4, align 8
  %13 = call i32 @Vec_PtrSize(ptr noundef %12)
  %14 = call i32 (ptr, ...) @printf(ptr noundef @.str.11, i32 noundef %13)
  %15 = load ptr, ptr %4, align 8
  %16 = call ptr @Prs_ManNameMan(ptr noundef %15)
  %17 = call i32 @Abc_NamObjNumMax(ptr noundef %16)
  %18 = call i32 (ptr, ...) @printf(ptr noundef @.str.12, i32 noundef %17)
  %19 = load ptr, ptr %4, align 8
  %20 = call i32 @Prs_ManMemory(ptr noundef %19)
  %21 = sitofp i32 %20 to double
  %22 = fmul double 1.000000e+00, %21
  %23 = fdiv double %22, 0x4130000000000000
  %24 = call i32 (ptr, ...) @printf(ptr noundef @.str.13, double noundef %23)
  %25 = call i64 @Abc_Clock()
  %26 = load i64, ptr %3, align 8
  %27 = sub nsw i64 %25, %26
  call void @Abc_PrintTime(i32 noundef 1, ptr noundef @.str.14, i64 noundef %27)
  %28 = load ptr, ptr %2, align 8
  %29 = call ptr @Extra_FileNameGenericAppend(ptr noundef %28, ptr noundef @.str.15)
  %30 = load ptr, ptr %4, align 8
  call void @Prs_ManWriteVerilog(ptr noundef %29, ptr noundef %30)
  %31 = load ptr, ptr %4, align 8
  call void @Prs_ManVecFree(ptr noundef %31)
  br label %32

32:                                               ; preds = %11, %10
  ret void
}