; Function Attrs: nounwind uwtable
define void @Prs_ManReadVerilogTest(ptr noundef %0) local_unnamed_addr #0 {
  %2 = alloca %struct.timespec, align 8
  %3 = alloca %struct.timespec, align 8
  call void @llvm.lifetime.start.p0(i64 16, ptr nonnull %3)
  %4 = call i32 @clock_gettime(i32 noundef 1, ptr noundef nonnull %3) #28
  %5 = icmp slt i32 %4, 0
  br i1 %5, label %Abc_Clock.exit, label %6

6:                                                ; preds = %1
  %7 = load i64, ptr %3, align 8
  %.neg10 = mul i64 %7, -1000000
  %8 = getelementptr inbounds nuw i8, ptr %3, i64 8
  %9 = load i64, ptr %8, align 8
  %.neg = sdiv i64 %9, -1000
  %.neg11 = add i64 %.neg, %.neg10
  br label %Abc_Clock.exit

Abc_Clock.exit:                                   ; preds = %1, %6
  %.0.i.neg = phi i64 [ %.neg11, %6 ], [ 1, %1 ]
  call void @llvm.lifetime.end.p0(i64 16, ptr nonnull %3)
  %10 = call ptr @Prs_ManReadVerilog(ptr noundef %0)
  %.not = icmp eq ptr %10, null
  br i1 %.not, label %146, label %11

11:                                               ; preds = %Abc_Clock.exit
  %12 = getelementptr i8, ptr %10, i64 4
  %.val = load i32, ptr %12, align 4
  %13 = call i32 (ptr, ...) @printf(ptr noundef nonnull dereferenceable(1) @.str.11, i32 noundef %.val)
  %.val.i.i.i = load i32, ptr %12, align 4
  %14 = icmp sgt i32 %.val.i.i.i, 0
  call void @llvm.assume(i1 %14)
  %15 = getelementptr i8, ptr %10, i64 8
  %.val4.i.i.i = load ptr, ptr %15, align 8
  %16 = load ptr, ptr %.val4.i.i.i, align 8
  %17 = getelementptr inbounds nuw i8, ptr %16, i64 8
  %18 = load ptr, ptr %17, align 8
  %19 = call i32 @Abc_NamObjNumMax(ptr noundef %18) #28
  %20 = call i32 (ptr, ...) @printf(ptr noundef nonnull dereferenceable(1) @.str.12, i32 noundef %19)
  %.val12.i = load i32, ptr %10, align 8
  %21 = sext i32 %.val12.i to i64
  %22 = uitofp i64 %21 to double
  %23 = call double @llvm.fmuladd.f64(double %22, double 8.000000e+00, double 1.600000e+01)
  %24 = fptosi double %23 to i32
  %.val.i = load i32, ptr %12, align 4
  %25 = icmp sgt i32 %.val.i, 0
  br i1 %25, label %.lr.ph.i, label %Prs_ManMemory.exit

.lr.ph.i:                                         ; preds = %11
  %.val11.i = load ptr, ptr %15, align 8
  %wide.trip.count.i = zext nneg i32 %.val.i to i64
  br label %26

26:                                               ; preds = %26, %.lr.ph.i
  %indvars.iv.i = phi i64 [ 0, %.lr.ph.i ], [ %indvars.iv.next.i, %26 ]
  %.014.i = phi i32 [ %24, %.lr.ph.i ], [ %124, %26 ]
  %27 = getelementptr inbounds nuw ptr, ptr %.val11.i, i64 %indvars.iv.i
  %28 = load ptr, ptr %27, align 8
  %29 = getelementptr inbounds nuw i8, ptr %28, i64 32
  %30 = load i32, ptr %29, align 8
  %31 = sext i32 %30 to i64
  %32 = uitofp i64 %31 to double
  %33 = call double @llvm.fmuladd.f64(double %32, double 4.000000e+00, double 1.600000e+01)
  %34 = fadd double %33, 2.400000e+02
  %35 = fptosi double %34 to i32
  %36 = getelementptr inbounds nuw i8, ptr %28, i64 48
  %37 = load i32, ptr %36, align 8
  %38 = sext i32 %37 to i64
  %39 = uitofp i64 %38 to double
  %40 = call double @llvm.fmuladd.f64(double %39, double 4.000000e+00, double 1.600000e+01)
  %41 = sitofp i32 %35 to double
  %42 = fadd double %40, %41
  %43 = fptosi double %42 to i32
  %44 = getelementptr inbounds nuw i8, ptr %28, i64 64
  %45 = load i32, ptr %44, align 8
  %46 = sext i32 %45 to i64
  %47 = uitofp i64 %46 to double
  %48 = call double @llvm.fmuladd.f64(double %47, double 4.000000e+00, double 1.600000e+01)
  %49 = sitofp i32 %43 to double
  %50 = fadd double %48, %49
  %51 = fptosi double %50 to i32
  %52 = getelementptr inbounds nuw i8, ptr %28, i64 80
  %53 = load i32, ptr %52, align 8
  %54 = sext i32 %53 to i64
  %55 = uitofp i64 %54 to double
  %56 = call double @llvm.fmuladd.f64(double %55, double 4.000000e+00, double 1.600000e+01)
  %57 = sitofp i32 %51 to double
  %58 = fadd double %56, %57
  %59 = fptosi double %58 to i32
  %60 = getelementptr inbounds nuw i8, ptr %28, i64 96
  %61 = load i32, ptr %60, align 8
  %62 = sext i32 %61 to i64
  %63 = uitofp i64 %62 to double
  %64 = call double @llvm.fmuladd.f64(double %63, double 4.000000e+00, double 1.600000e+01)
  %65 = sitofp i32 %59 to double
  %66 = fadd double %64, %65
  %67 = fptosi double %66 to i32
  %68 = getelementptr inbounds nuw i8, ptr %28, i64 112
  %69 = load i32, ptr %68, align 8
  %70 = sext i32 %69 to i64
  %71 = uitofp i64 %70 to double
  %72 = call double @llvm.fmuladd.f64(double %71, double 4.000000e+00, double 1.600000e+01)
  %73 = sitofp i32 %67 to double
  %74 = fadd double %72, %73
  %75 = fptosi double %74 to i32
  %76 = getelementptr inbounds nuw i8, ptr %28, i64 128
  %77 = load i32, ptr %76, align 8
  %78 = sext i32 %77 to i64
  %79 = uitofp i64 %78 to double
  %80 = call double @llvm.fmuladd.f64(double %79, double 4.000000e+00, double 1.600000e+01)
  %81 = sitofp i32 %75 to double
  %82 = fadd double %80, %81
  %83 = fptosi double %82 to i32
  %84 = getelementptr inbounds nuw i8, ptr %28, i64 144
  %85 = load i32, ptr %84, align 8
  %86 = sext i32 %85 to i64
  %87 = uitofp i64 %86 to double
  %88 = call double @llvm.fmuladd.f64(double %87, double 4.000000e+00, double 1.600000e+01)
  %89 = sitofp i32 %83 to double
  %90 = fadd double %88, %89
  %91 = fptosi double %90 to i32
  %92 = getelementptr inbounds nuw i8, ptr %28, i64 160
  %93 = load i32, ptr %92, align 8
  %94 = sext i32 %93 to i64
  %95 = uitofp i64 %94 to double
  %96 = call double @llvm.fmuladd.f64(double %95, double 4.000000e+00, double 1.600000e+01)
  %97 = sitofp i32 %91 to double
  %98 = fadd double %96, %97
  %99 = fptosi double %98 to i32
  %100 = getelementptr inbounds nuw i8, ptr %28, i64 176
  %101 = load i32, ptr %100, align 8
  %102 = sext i32 %101 to i64
  %103 = uitofp i64 %102 to double
  %104 = call double @llvm.fmuladd.f64(double %103, double 4.000000e+00, double 1.600000e+01)
  %105 = sitofp i32 %99 to double
  %106 = fadd double %104, %105
  %107 = fptosi double %106 to i32
  %108 = getelementptr inbounds nuw i8, ptr %28, i64 208
  %109 = load i32, ptr %108, align 8
  %110 = sext i32 %109 to i64
  %111 = uitofp i64 %110 to double
  %112 = call double @llvm.fmuladd.f64(double %111, double 4.000000e+00, double 1.600000e+01)
  %113 = sitofp i32 %107 to double
  %114 = fadd double %112, %113
  %115 = fptosi double %114 to i32
  %116 = getelementptr inbounds nuw i8, ptr %28, i64 192
  %117 = load i32, ptr %116, align 8
  %118 = sext i32 %117 to i64
  %119 = uitofp i64 %118 to double
  %120 = call double @llvm.fmuladd.f64(double %119, double 4.000000e+00, double 1.600000e+01)
  %121 = sitofp i32 %115 to double
  %122 = fadd double %120, %121
  %123 = fptosi double %122 to i32
  %124 = add nsw i32 %.014.i, %123
  %indvars.iv.next.i = add nuw nsw i64 %indvars.iv.i, 1
  %exitcond.not.i = icmp eq i64 %indvars.iv.next.i, %wide.trip.count.i
  br i1 %exitcond.not.i, label %Prs_ManMemory.exit, label %26, !llvm.loop !23

Prs_ManMemory.exit:                               ; preds = %26, %11
  %.0.lcssa.i = phi i32 [ %24, %11 ], [ %124, %26 ]
  call void @llvm.assume(i1 %25)
  %.val4.i.i.i.i = load ptr, ptr %15, align 8
  %125 = load ptr, ptr %.val4.i.i.i.i, align 8
  %126 = getelementptr inbounds nuw i8, ptr %125, i64 8
  %127 = load ptr, ptr %126, align 8
  %128 = call i32 @Abc_NamMemUsed(ptr noundef %127) #28
  %129 = add nsw i32 %128, %.0.lcssa.i
  %130 = sitofp i32 %129 to double
  %131 = fmul double %130, 0x3EB0000000000000
  %132 = call i32 (ptr, ...) @printf(ptr noundef nonnull dereferenceable(1) @.str.13, double noundef %131)
  call void @llvm.lifetime.start.p0(i64 16, ptr nonnull %2)
  %133 = call i32 @clock_gettime(i32 noundef 1, ptr noundef nonnull %2) #28
  %134 = icmp slt i32 %133, 0
  br i1 %134, label %Abc_Clock.exit9, label %135

135:                                              ; preds = %Prs_ManMemory.exit
  %136 = load i64, ptr %2, align 8
  %137 = mul nsw i64 %136, 1000000
  %138 = getelementptr inbounds nuw i8, ptr %2, i64 8
  %139 = load i64, ptr %138, align 8
  %140 = sdiv i64 %139, 1000
  %141 = add nsw i64 %140, %137
  br label %Abc_Clock.exit9

Abc_Clock.exit9:                                  ; preds = %Prs_ManMemory.exit, %135
  %.0.i8 = phi i64 [ %141, %135 ], [ -1, %Prs_ManMemory.exit ]
  call void @llvm.lifetime.end.p0(i64 16, ptr nonnull %2)
  %142 = add i64 %.0.i8, %.0.i.neg
  call void (i32, ptr, ...) @Abc_Print(i32 poison, ptr noundef nonnull @.str.195, ptr noundef nonnull @.str.14)
  %143 = sitofp i64 %142 to double
  %144 = fdiv double %143, 1.000000e+06
  call void (i32, ptr, ...) @Abc_Print(i32 poison, ptr noundef nonnull @.str.196, double noundef %144)
  %145 = call ptr @Extra_FileNameGenericAppend(ptr noundef %0, ptr noundef nonnull @.str.15) #28
  call void @Prs_ManWriteVerilog(ptr noundef %145, ptr noundef nonnull %10) #28
  call fastcc void @Prs_ManVecFree(ptr noundef %10)
  br label %146

146:                                              ; preds = %Abc_Clock.exit, %Abc_Clock.exit9
  ret void
}